; ModuleID = '20/39.c'
source_filename = "20/39.c"
target datalayout = "e-m:e-p270:32:32-p271:32:32-p272:64:64-i64:64-f80:128-n8:16:32:64-S128"
target triple = "x86_64-pc-linux-gnu"

@.str = private unnamed_addr constant [3 x i8] c"%c\00", align 1
@.str.1 = private unnamed_addr constant [2 x i8] c"\0A\00", align 1

; Function Attrs: noinline nounwind uwtable
define dso_local void @main() #0 {
  %1 = alloca [15 x i8], align 1
  %2 = alloca [4 x i8], align 1
  %3 = alloca [15 x i8], align 1
  %4 = alloca i8, align 1
  %5 = alloca i32, align 4
  %6 = alloca i32, align 4
  %7 = alloca i32, align 4
  %8 = alloca i32, align 4
  %9 = alloca i32, align 4
  %10 = alloca i32, align 4
  %11 = bitcast [15 x i8]* %1 to i8*
  call void @llvm.memset.p0i8.i64(i8* align 1 %11, i8 0, i64 15, i1 false)
  %12 = bitcast [4 x i8]* %2 to i8*
  call void @llvm.memset.p0i8.i64(i8* align 1 %12, i8 0, i64 4, i1 false)
  %13 = bitcast [15 x i8]* %3 to i8*
  call void @llvm.memset.p0i8.i64(i8* align 1 %13, i8 0, i64 15, i1 false)
  store i32 0, i32* %5, align 4
  br label %14

14:                                               ; preds = %0, %128
  %15 = call i32 @getchar()
  %16 = trunc i32 %15 to i8
  store i8 %16, i8* %4, align 1
  %17 = sext i8 %16 to i32
  %18 = icmp eq i32 %17, -1
  br i1 %18, label %19, label %20

19:                                               ; preds = %14
  br label %130

20:                                               ; preds = %14
  %21 = load i8, i8* %4, align 1
  %22 = getelementptr inbounds [15 x i8], [15 x i8]* %1, i64 0, i64 0
  store i8 %21, i8* %22, align 1
  %23 = getelementptr inbounds [15 x i8], [15 x i8]* %1, i64 0, i64 1
  %24 = call i32 (i8*, ...) bitcast (i32 (...)* @gets to i32 (i8*, ...)*)(i8* %23)
  store i32 0, i32* %7, align 4
  %25 = getelementptr inbounds [15 x i8], [15 x i8]* %1, i64 0, i64 0
  %26 = call i64 @strlen(i8* %25) #5
  %27 = trunc i64 %26 to i32
  store i32 %27, i32* %9, align 4
  store i32 0, i32* %6, align 4
  br label %28

28:                                               ; preds = %42, %20
  %29 = load i32, i32* %6, align 4
  %30 = icmp slt i32 %29, 3
  br i1 %30, label %31, label %45

31:                                               ; preds = %28
  %32 = load i32, i32* %9, align 4
  %33 = load i32, i32* %6, align 4
  %34 = add nsw i32 %32, %33
  %35 = sub nsw i32 %34, 3
  %36 = sext i32 %35 to i64
  %37 = getelementptr inbounds [15 x i8], [15 x i8]* %1, i64 0, i64 %36
  %38 = load i8, i8* %37, align 1
  %39 = load i32, i32* %6, align 4
  %40 = sext i32 %39 to i64
  %41 = getelementptr inbounds [4 x i8], [4 x i8]* %2, i64 0, i64 %40
  store i8 %38, i8* %41, align 1
  br label %42

42:                                               ; preds = %31
  %43 = load i32, i32* %6, align 4
  %44 = add nsw i32 %43, 1
  store i32 %44, i32* %6, align 4
  br label %28

45:                                               ; preds = %28
  store i32 0, i32* %6, align 4
  br label %46

46:                                               ; preds = %64, %45
  %47 = load i32, i32* %6, align 4
  %48 = load i32, i32* %9, align 4
  %49 = sub nsw i32 %48, 4
  %50 = icmp slt i32 %47, %49
  br i1 %50, label %51, label %67

51:                                               ; preds = %46
  %52 = load i32, i32* %6, align 4
  %53 = sext i32 %52 to i64
  %54 = getelementptr inbounds [15 x i8], [15 x i8]* %1, i64 0, i64 %53
  %55 = load i8, i8* %54, align 1
  %56 = sext i8 %55 to i32
  store i32 %56, i32* %10, align 4
  %57 = load i32, i32* %10, align 4
  %58 = load i32, i32* %7, align 4
  %59 = icmp sgt i32 %57, %58
  br i1 %59, label %60, label %63

60:                                               ; preds = %51
  %61 = load i32, i32* %10, align 4
  store i32 %61, i32* %7, align 4
  %62 = load i32, i32* %6, align 4
  store i32 %62, i32* %8, align 4
  br label %63

63:                                               ; preds = %60, %51
  br label %64

64:                                               ; preds = %63
  %65 = load i32, i32* %6, align 4
  %66 = add nsw i32 %65, 1
  store i32 %66, i32* %6, align 4
  br label %46

67:                                               ; preds = %46
  %68 = getelementptr inbounds [15 x i8], [15 x i8]* %3, i64 0, i64 0
  %69 = getelementptr inbounds [15 x i8], [15 x i8]* %1, i64 0, i64 0
  %70 = call i8* @strcpy(i8* %68, i8* %69) #6
  %71 = load i32, i32* %8, align 4
  %72 = add nsw i32 %71, 1
  store i32 %72, i32* %6, align 4
  br label %73

73:                                               ; preds = %89, %67
  %74 = load i32, i32* %6, align 4
  %75 = load i32, i32* %8, align 4
  %76 = add nsw i32 %75, 4
  %77 = icmp slt i32 %74, %76
  br i1 %77, label %78, label %92

78:                                               ; preds = %73
  %79 = load i32, i32* %6, align 4
  %80 = load i32, i32* %8, align 4
  %81 = sub nsw i32 %79, %80
  %82 = sub nsw i32 %81, 1
  %83 = sext i32 %82 to i64
  %84 = getelementptr inbounds [4 x i8], [4 x i8]* %2, i64 0, i64 %83
  %85 = load i8, i8* %84, align 1
  %86 = load i32, i32* %6, align 4
  %87 = sext i32 %86 to i64
  %88 = getelementptr inbounds [15 x i8], [15 x i8]* %1, i64 0, i64 %87
  store i8 %85, i8* %88, align 1
  br label %89

89:                                               ; preds = %78
  %90 = load i32, i32* %6, align 4
  %91 = add nsw i32 %90, 1
  store i32 %91, i32* %6, align 4
  br label %73

92:                                               ; preds = %73
  %93 = load i32, i32* %8, align 4
  %94 = add nsw i32 %93, 4
  store i32 %94, i32* %6, align 4
  br label %95

95:                                               ; preds = %109, %92
  %96 = load i32, i32* %6, align 4
  %97 = load i32, i32* %9, align 4
  %98 = sub nsw i32 %97, 1
  %99 = icmp slt i32 %96, %98
  br i1 %99, label %100, label %112

100:                                              ; preds = %95
  %101 = load i32, i32* %6, align 4
  %102 = sub nsw i32 %101, 3
  %103 = sext i32 %102 to i64
  %104 = getelementptr inbounds [15 x i8], [15 x i8]* %3, i64 0, i64 %103
  %105 = load i8, i8* %104, align 1
  %106 = load i32, i32* %6, align 4
  %107 = sext i32 %106 to i64
  %108 = getelementptr inbounds [15 x i8], [15 x i8]* %1, i64 0, i64 %107
  store i8 %105, i8* %108, align 1
  br label %109

109:                                              ; preds = %100
  %110 = load i32, i32* %6, align 4
  %111 = add nsw i32 %110, 1
  store i32 %111, i32* %6, align 4
  br label %95

112:                                              ; preds = %95
  store i32 0, i32* %6, align 4
  br label %113

113:                                              ; preds = %125, %112
  %114 = load i32, i32* %6, align 4
  %115 = load i32, i32* %9, align 4
  %116 = sub nsw i32 %115, 1
  %117 = icmp slt i32 %114, %116
  br i1 %117, label %118, label %128

118:                                              ; preds = %113
  %119 = load i32, i32* %6, align 4
  %120 = sext i32 %119 to i64
  %121 = getelementptr inbounds [15 x i8], [15 x i8]* %1, i64 0, i64 %120
  %122 = load i8, i8* %121, align 1
  %123 = sext i8 %122 to i32
  %124 = call i32 (i8*, ...) @printf(i8* getelementptr inbounds ([3 x i8], [3 x i8]* @.str, i64 0, i64 0), i32 %123)
  br label %125

125:                                              ; preds = %118
  %126 = load i32, i32* %6, align 4
  %127 = add nsw i32 %126, 1
  store i32 %127, i32* %6, align 4
  br label %113

128:                                              ; preds = %113
  %129 = call i32 (i8*, ...) @printf(i8* getelementptr inbounds ([2 x i8], [2 x i8]* @.str.1, i64 0, i64 0))
  br label %14

130:                                              ; preds = %19
  ret void
}

; Function Attrs: argmemonly nounwind willreturn
declare void @llvm.memset.p0i8.i64(i8* nocapture writeonly, i8, i64, i1 immarg) #1

declare dso_local i32 @getchar() #2

declare dso_local i32 @gets(...) #2

; Function Attrs: nounwind readonly
declare dso_local i64 @strlen(i8*) #3

; Function Attrs: nounwind
declare dso_local i8* @strcpy(i8*, i8*) #4

declare dso_local i32 @printf(i8*, ...) #2


!llvm.module.flags = !{!0}
!llvm.ident = !{!1}

!0 = !{i32 1, !"wchar_size", i32 4}
!1 = !{!"clang version 10.0.0-4ubuntu1 "}
